; Function Attrs: mustprogress nounwind uwtable
define hidden void @_ZN14ZGenerationOld29process_non_strong_referencesEv(ptr noundef nonnull align 64 dereferenceable(6720) %0) local_unnamed_addr #0 align 2 {
  %2 = alloca %class.ClassUnloadingContext, align 8
  %3 = alloca %class.ZRendezvousHandshakeClosure, align 8
  %4 = alloca %class.ZRendezvousGCThreads, align 8
  %5 = getelementptr inbounds i8, ptr %0, i64 6592
  tail call void @_ZN19ZReferenceProcessor18process_referencesEv(ptr noundef nonnull align 8 dereferenceable(80) %5) #18
  %6 = getelementptr inbounds i8, ptr %0, i64 6672
  tail call void @_ZN19ZWeakRootsProcessor18process_weak_rootsEv(ptr noundef nonnull align 8 dereferenceable(8) %6) #18
  %7 = getelementptr inbounds i8, ptr %0, i64 48
  %8 = tail call noundef i32 @_ZNK8ZWorkers14active_workersEv(ptr noundef nonnull align 8 dereferenceable(184) %7) #18
  call void @_ZN21ClassUnloadingContextC1Ejbb(ptr noundef nonnull align 8 dereferenceable(26) %2, i32 noundef %8, i1 noundef zeroext true, i1 noundef zeroext true) #18
  %9 = getelementptr inbounds i8, ptr %0, i64 6680
  call void @_ZN7ZUnload6unlinkEv(ptr noundef nonnull align 8 dereferenceable(8) %9) #18
  %10 = getelementptr inbounds i8, ptr %3, i64 8
  store ptr @.str.95, ptr %10, align 8
  store ptr getelementptr inbounds inrange(-16, 48) (i8, ptr @_ZTV27ZRendezvousHandshakeClosure, i64 16), ptr %3, align 8
  call void @_ZN9Handshake7executeEP16HandshakeClosure(ptr noundef nonnull %3) #18
  %11 = getelementptr inbounds i8, ptr %4, i64 8
  store ptr null, ptr %11, align 8
  store ptr getelementptr inbounds inrange(-16, 80) (i8, ptr @_ZTV20ZRendezvousGCThreads, i64 16), ptr %4, align 8
  call void @_ZN8VMThread7executeEP12VM_Operation(ptr noundef nonnull %4) #18
  call void @_ZN13ZResurrection7unblockEv() #18
  call void @_ZN7ZUnload5purgeEv(ptr noundef nonnull align 8 dereferenceable(8) %9) #18
  call void @_ZN19ZReferenceProcessor18enqueue_referencesEv(ptr noundef nonnull align 8 dereferenceable(80) %5) #18
  call void @_ZN20ClassLoaderDataGraph19clear_claimed_marksEi(i32 noundef 3) #18
  call void @_ZN21ClassUnloadingContextD1Ev(ptr noundef nonnull align 8 dereferenceable(26) %2) #18
  ret void
}